#include <math.h>
#include <stdio.h>
#include <stdlib.h>
#include <string.h>
#include <iostream>
using namespace std;

//***************************
//*  ??????????   *
//*  ??????           *
//*  ???2010-11-18       *
//***************************
int main()
{
	int i,j,num;//??num???????????
	char str[100];
	cin.get(str,100);//????????????
	num=100;
	for(i=0;i<num;i++)
	{
		if(str[i]==' '&&str[i+1]==' ')//????????
		{
			for(j=i+1;j<num;j++)
			{
				str[j]=str[j+1];//??????????????????????
			}
			num--;//??????
			i--;//??????????????str[i]?str[i+1]??????
		}
	}
	cout<<str<<endl;
	return 0;
}